; Function Attrs: nofree norecurse nosync nounwind memory(read, inaccessiblemem: none) uwtable
define range(i32 0, -2147483648) i32 @Wlc_NtkNumPiBits(ptr noundef readonly captures(none) %0) local_unnamed_addr #5 {
  %2 = getelementptr i8, ptr %0, i64 20
  %.val = load i32, ptr %2, align 4, !tbaa !11
  %3 = icmp sgt i32 %.val, 0
  br i1 %3, label %.lr.ph, label %.critedge

.lr.ph:                                           ; preds = %1
  %4 = getelementptr i8, ptr %0, i64 24
  %.val8 = load ptr, ptr %4, align 8, !tbaa !14
  %5 = getelementptr i8, ptr %0, i64 640
  %.val9 = load ptr, ptr %5, align 8, !tbaa !19
  %wide.trip.count = zext nneg i32 %.val to i64
  br label %6

6:                                                ; preds = %.lr.ph, %6
  %indvars.iv = phi i64 [ 0, %.lr.ph ], [ %indvars.iv.next, %6 ]
  %.013 = phi i32 [ 0, %.lr.ph ], [ %16, %6 ]
  %7 = getelementptr inbounds nuw i32, ptr %.val8, i64 %indvars.iv
  %8 = load i32, ptr %7, align 4, !tbaa !15
  %9 = sext i32 %8 to i64
  %10 = getelementptr inbounds %struct.Wlc_Obj_t_, ptr %.val9, i64 %9
  %11 = getelementptr i8, ptr %10, i64 8
  %.val10 = load i32, ptr %11, align 8, !tbaa !43
  %12 = getelementptr i8, ptr %10, i64 12
  %.val11 = load i32, ptr %12, align 4, !tbaa !44
  %13 = sub nsw i32 %.val10, %.val11
  %14 = tail call i32 @llvm.abs.i32(i32 %13, i1 true)
  %15 = add nuw nsw i32 %.013, 1
  %16 = add nuw nsw i32 %15, %14
  %indvars.iv.next = add nuw nsw i64 %indvars.iv, 1
  %exitcond.not = icmp eq i64 %indvars.iv.next, %wide.trip.count
  br i1 %exitcond.not, label %.critedge, label %6, !llvm.loop !45

.critedge:                                        ; preds = %6, %1
  %.0.lcssa = phi i32 [ 0, %1 ], [ %16, %6 ]
  ret i32 %.0.lcssa
}